target datalayout = "e-m:e-p270:32:32-p271:32:32-p272:64:64-i64:64-i128:128-f80:128-n8:16:32:64-S128"
target triple = "x86_64-pc-linux-gnu"

%struct.PmeGpuProgramImpl = type { ptr, i64, i64, ptr, ptr, ptr, ptr, ptr, ptr, ptr, ptr, ptr, ptr, ptr, ptr, ptr, ptr, ptr, ptr, i64, ptr, ptr, ptr, ptr, ptr, ptr, ptr, ptr, i64, ptr, ptr, ptr, ptr, ptr, ptr, ptr, ptr, ptr }

@_ZN17PmeGpuProgramImplC1ERK13DeviceContext = unnamed_addr alias void (ptr, ptr), ptr @_ZN17PmeGpuProgramImplC2ERK13DeviceContext
@_ZN17PmeGpuProgramImplD1Ev = unnamed_addr alias void (ptr), ptr @_ZN17PmeGpuProgramImplD2Ev

; Function Attrs: mustprogress nounwind uwtable
define void @_ZN17PmeGpuProgramImplC2ERK13DeviceContext(ptr noundef nonnull align 8 dereferenceable(304) %0, ptr noundef nonnull align 8 dereferenceable(8) %1) unnamed_addr #0 align 2 {
  %3 = alloca ptr, align 8
  %4 = alloca ptr, align 8
  store ptr %0, ptr %3, align 8
  store ptr %1, ptr %4, align 8
  %5 = load ptr, ptr %3, align 8
  %6 = getelementptr inbounds %struct.PmeGpuProgramImpl, ptr %5, i32 0, i32 0
  %7 = load ptr, ptr %4, align 8
  store ptr %7, ptr %6, align 8
  %8 = getelementptr inbounds %struct.PmeGpuProgramImpl, ptr %5, i32 0, i32 1
  store i64 0, ptr %8, align 8
  %9 = getelementptr inbounds %struct.PmeGpuProgramImpl, ptr %5, i32 0, i32 2
  store i64 0, ptr %9, align 8
  %10 = getelementptr inbounds %struct.PmeGpuProgramImpl, ptr %5, i32 0, i32 19
  store i64 0, ptr %10, align 8
  %11 = getelementptr inbounds %struct.PmeGpuProgramImpl, ptr %5, i32 0, i32 28
  store i64 0, ptr %11, align 8
  ret void
}

; Function Attrs: mustprogress nounwind uwtable
define void @_ZN17PmeGpuProgramImplD2Ev(ptr noundef nonnull align 8 dereferenceable(304) %0) unnamed_addr #0 align 2 {
  %2 = alloca ptr, align 8
  store ptr %0, ptr %2, align 8
  ret void
}


!llvm.module.flags = !{!0, !1, !2, !3, !4}

!0 = !{i32 1, !"wchar_size", i32 4}
!1 = !{i32 7, !"openmp", i32 51}
!2 = !{i32 8, !"PIC Level", i32 2}
!3 = !{i32 7, !"uwtable", i32 2}
!4 = !{i32 7, !"frame-pointer", i32 2}
