; ModuleID = 'bench/gromacs/original/pme_gpu_program_impl.cpp.ll'
source_filename = "bench/gromacs/original/pme_gpu_program_impl.cpp.ll"
target datalayout = "e-m:e-p270:32:32-p271:32:32-p272:64:64-i64:64-i128:128-f80:128-n8:16:32:64-S128"
target triple = "x86_64-pc-linux-gnu"

@_ZN17PmeGpuProgramImplC1ERK13DeviceContext = unnamed_addr alias void (ptr, ptr), ptr @_ZN17PmeGpuProgramImplC2ERK13DeviceContext
@_ZN17PmeGpuProgramImplD1Ev = unnamed_addr alias void (ptr), ptr @_ZN17PmeGpuProgramImplD2Ev

; Function Attrs: mustprogress nofree norecurse nosync nounwind willreturn memory(argmem: write) uwtable
define void @_ZN17PmeGpuProgramImplC2ERK13DeviceContext(ptr nocapture noundef nonnull writeonly align 8 dereferenceable(304) %0, ptr noundef nonnull align 8 dereferenceable(8) %1) unnamed_addr #0 align 2 {
  store ptr %1, ptr %0, align 8
  %3 = getelementptr inbounds i8, ptr %0, i64 8
  %4 = getelementptr inbounds i8, ptr %0, i64 152
  store i64 0, ptr %4, align 8
  %5 = getelementptr inbounds i8, ptr %0, i64 224
  store i64 0, ptr %5, align 8
  tail call void @llvm.memset.p0.i64(ptr noundef nonnull align 8 dereferenceable(16) %3, i8 0, i64 16, i1 false)
  ret void
}

; Function Attrs: mustprogress nofree norecurse nosync nounwind willreturn memory(none) uwtable
define void @_ZN17PmeGpuProgramImplD2Ev(ptr nocapture nonnull readnone align 8 %0) unnamed_addr #1 align 2 {
  ret void
}

; Function Attrs: nocallback nofree nounwind willreturn memory(argmem: write)
declare void @llvm.memset.p0.i64(ptr nocapture writeonly, i8, i64, i1 immarg) #2


!llvm.module.flags = !{!0, !1, !2, !3, !4}

!0 = !{i32 1, !"wchar_size", i32 4}
!1 = !{i32 7, !"openmp", i32 51}
!2 = !{i32 8, !"PIC Level", i32 2}
!3 = !{i32 7, !"uwtable", i32 2}
!4 = !{i32 7, !"frame-pointer", i32 2}
